; ModuleID = '7/911.c'
source_filename = "7/911.c"
target datalayout = "e-m:e-p270:32:32-p271:32:32-p272:64:64-i64:64-f80:128-n8:16:32:64-S128"
target triple = "x86_64-pc-linux-gnu"

@.str = private unnamed_addr constant [3 x i8] c"%s\00", align 1
@.str.1 = private unnamed_addr constant [3 x i8] c"%c\00", align 1

; Function Attrs: noinline nounwind uwtable
define dso_local i32 @main() #0 {
  %1 = alloca i32, align 4
  %2 = alloca [257 x i8], align 16
  %3 = alloca [257 x i8], align 16
  %4 = alloca [257 x i8], align 16
  %5 = alloca i32, align 4
  %6 = alloca i32, align 4
  %7 = alloca i32, align 4
  %8 = alloca i32, align 4
  %9 = alloca i32, align 4
  %10 = alloca i32, align 4
  %11 = alloca i32, align 4
  %12 = alloca i32, align 4
  %13 = alloca i32, align 4
  %14 = alloca i32, align 4
  store i32 0, i32* %1, align 4
  store i32 0, i32* %13, align 4
  store i32 0, i32* %14, align 4
  %15 = getelementptr inbounds [257 x i8], [257 x i8]* %2, i64 0, i64 0
  %16 = call i32 (i8*, ...) @__isoc99_scanf(i8* getelementptr inbounds ([3 x i8], [3 x i8]* @.str, i64 0, i64 0), i8* %15)
  %17 = getelementptr inbounds [257 x i8], [257 x i8]* %3, i64 0, i64 0
  %18 = call i32 (i8*, ...) @__isoc99_scanf(i8* getelementptr inbounds ([3 x i8], [3 x i8]* @.str, i64 0, i64 0), i8* %17)
  %19 = getelementptr inbounds [257 x i8], [257 x i8]* %4, i64 0, i64 0
  %20 = call i32 (i8*, ...) @__isoc99_scanf(i8* getelementptr inbounds ([3 x i8], [3 x i8]* @.str, i64 0, i64 0), i8* %19)
  %21 = getelementptr inbounds [257 x i8], [257 x i8]* %2, i64 0, i64 0
  %22 = call i64 @strlen(i8* %21) #3
  %23 = trunc i64 %22 to i32
  store i32 %23, i32* %9, align 4
  %24 = getelementptr inbounds [257 x i8], [257 x i8]* %3, i64 0, i64 0
  %25 = call i64 @strlen(i8* %24) #3
  %26 = trunc i64 %25 to i32
  store i32 %26, i32* %10, align 4
  %27 = getelementptr inbounds [257 x i8], [257 x i8]* %4, i64 0, i64 0
  %28 = call i64 @strlen(i8* %27) #3
  %29 = trunc i64 %28 to i32
  store i32 %29, i32* %11, align 4
  store i32 0, i32* %6, align 4
  br label %30

30:                                               ; preds = %126, %0
  %31 = load i32, i32* %6, align 4
  %32 = load i32, i32* %9, align 4
  %33 = icmp slt i32 %31, %32
  br i1 %33, label %34, label %129

34:                                               ; preds = %30
  %35 = load i32, i32* %6, align 4
  %36 = sext i32 %35 to i64
  %37 = getelementptr inbounds [257 x i8], [257 x i8]* %2, i64 0, i64 %36
  %38 = load i8, i8* %37, align 1
  %39 = sext i8 %38 to i32
  %40 = getelementptr inbounds [257 x i8], [257 x i8]* %3, i64 0, i64 0
  %41 = load i8, i8* %40, align 16
  %42 = sext i8 %41 to i32
  %43 = icmp eq i32 %39, %42
  br i1 %43, label %44, label %125

44:                                               ; preds = %34
  %45 = load i32, i32* %6, align 4
  store i32 %45, i32* %12, align 4
  store i32 0, i32* %13, align 4
  store i32 0, i32* %7, align 4
  br label %46

46:                                               ; preds = %68, %44
  %47 = load i32, i32* %7, align 4
  %48 = load i32, i32* %10, align 4
  %49 = icmp slt i32 %47, %48
  br i1 %49, label %50, label %71

50:                                               ; preds = %46
  %51 = load i32, i32* %12, align 4
  %52 = load i32, i32* %7, align 4
  %53 = add nsw i32 %51, %52
  %54 = sext i32 %53 to i64
  %55 = getelementptr inbounds [257 x i8], [257 x i8]* %2, i64 0, i64 %54
  %56 = load i8, i8* %55, align 1
  %57 = sext i8 %56 to i32
  %58 = load i32, i32* %7, align 4
  %59 = sext i32 %58 to i64
  %60 = getelementptr inbounds [257 x i8], [257 x i8]* %3, i64 0, i64 %59
  %61 = load i8, i8* %60, align 1
  %62 = sext i8 %61 to i32
  %63 = icmp eq i32 %57, %62
  br i1 %63, label %64, label %67

64:                                               ; preds = %50
  %65 = load i32, i32* %13, align 4
  %66 = add nsw i32 %65, 1
  store i32 %66, i32* %13, align 4
  br label %67

67:                                               ; preds = %64, %50
  br label %68

68:                                               ; preds = %67
  %69 = load i32, i32* %7, align 4
  %70 = add nsw i32 %69, 1
  store i32 %70, i32* %7, align 4
  br label %46

71:                                               ; preds = %46
  %72 = load i32, i32* %13, align 4
  %73 = load i32, i32* %10, align 4
  %74 = icmp eq i32 %72, %73
  br i1 %74, label %75, label %124

75:                                               ; preds = %71
  store i32 0, i32* %5, align 4
  br label %76

76:                                               ; preds = %87, %75
  %77 = load i32, i32* %5, align 4
  %78 = load i32, i32* %12, align 4
  %79 = icmp slt i32 %77, %78
  br i1 %79, label %80, label %90

80:                                               ; preds = %76
  %81 = load i32, i32* %5, align 4
  %82 = sext i32 %81 to i64
  %83 = getelementptr inbounds [257 x i8], [257 x i8]* %2, i64 0, i64 %82
  %84 = load i8, i8* %83, align 1
  %85 = sext i8 %84 to i32
  %86 = call i32 (i8*, ...) @printf(i8* getelementptr inbounds ([3 x i8], [3 x i8]* @.str.1, i64 0, i64 0), i32 %85)
  br label %87

87:                                               ; preds = %80
  %88 = load i32, i32* %5, align 4
  %89 = add nsw i32 %88, 1
  store i32 %89, i32* %5, align 4
  br label %76

90:                                               ; preds = %76
  store i32 0, i32* %7, align 4
  br label %91

91:                                               ; preds = %102, %90
  %92 = load i32, i32* %7, align 4
  %93 = load i32, i32* %11, align 4
  %94 = icmp slt i32 %92, %93
  br i1 %94, label %95, label %105

95:                                               ; preds = %91
  %96 = load i32, i32* %7, align 4
  %97 = sext i32 %96 to i64
  %98 = getelementptr inbounds [257 x i8], [257 x i8]* %4, i64 0, i64 %97
  %99 = load i8, i8* %98, align 1
  %100 = sext i8 %99 to i32
  %101 = call i32 (i8*, ...) @printf(i8* getelementptr inbounds ([3 x i8], [3 x i8]* @.str.1, i64 0, i64 0), i32 %100)
  br label %102

102:                                              ; preds = %95
  %103 = load i32, i32* %7, align 4
  %104 = add nsw i32 %103, 1
  store i32 %104, i32* %7, align 4
  br label %91

105:                                              ; preds = %91
  %106 = load i32, i32* %12, align 4
  %107 = load i32, i32* %10, align 4
  %108 = add nsw i32 %106, %107
  store i32 %108, i32* %8, align 4
  br label %109

109:                                              ; preds = %120, %105
  %110 = load i32, i32* %8, align 4
  %111 = load i32, i32* %9, align 4
  %112 = icmp slt i32 %110, %111
  br i1 %112, label %113, label %123

113:                                              ; preds = %109
  %114 = load i32, i32* %8, align 4
  %115 = sext i32 %114 to i64
  %116 = getelementptr inbounds [257 x i8], [257 x i8]* %2, i64 0, i64 %115
  %117 = load i8, i8* %116, align 1
  %118 = sext i8 %117 to i32
  %119 = call i32 (i8*, ...) @printf(i8* getelementptr inbounds ([3 x i8], [3 x i8]* @.str.1, i64 0, i64 0), i32 %118)
  br label %120

120:                                              ; preds = %113
  %121 = load i32, i32* %8, align 4
  %122 = add nsw i32 %121, 1
  store i32 %122, i32* %8, align 4
  br label %109

123:                                              ; preds = %109
  store i32 0, i32* %1, align 4
  br label %132

124:                                              ; preds = %71
  br label %125

125:                                              ; preds = %124, %34
  br label %126

126:                                              ; preds = %125
  %127 = load i32, i32* %6, align 4
  %128 = add nsw i32 %127, 1
  store i32 %128, i32* %6, align 4
  br label %30

129:                                              ; preds = %30
  %130 = getelementptr inbounds [257 x i8], [257 x i8]* %2, i64 0, i64 0
  %131 = call i32 (i8*, ...) @printf(i8* getelementptr inbounds ([3 x i8], [3 x i8]* @.str, i64 0, i64 0), i8* %130)
  store i32 0, i32* %1, align 4
  br label %132

132:                                              ; preds = %129, %123
  %133 = load i32, i32* %1, align 4
  ret i32 %133
}

declare dso_local i32 @__isoc99_scanf(i8*, ...) #1

; Function Attrs: nounwind readonly
declare dso_local i64 @strlen(i8*) #2

declare dso_local i32 @printf(i8*, ...) #1


!llvm.module.flags = !{!0}
!llvm.ident = !{!1}

!0 = !{i32 1, !"wchar_size", i32 4}
!1 = !{!"clang version 10.0.0-4ubuntu1 "}
